target datalayout = "e-m:e-p270:32:32-p271:32:32-p272:64:64-i64:64-i128:128-f80:128-n8:16:32:64-S128"
target triple = "x86_64-pc-linux-gnu"

%struct.PROV_XORKEMKEX_CTX = type { ptr, ptr, ptr }

@.str.2 = private unnamed_addr constant [31 x i8] c"../openssl/test/tls-provider.c\00", align 1

; Function Attrs: nounwind uwtable
define internal ptr @xor_newkemkexctx(ptr noundef %0) #0 {
  %2 = alloca ptr, align 8
  %3 = alloca ptr, align 8
  %4 = alloca ptr, align 8
  %5 = alloca i32, align 4
  store ptr %0, ptr %3, align 8, !tbaa !13
  call void @llvm.lifetime.start.p0(i64 8, ptr %4) #8
  %6 = call noalias ptr @CRYPTO_zalloc(i64 noundef 24, ptr noundef @.str.2, i32 noundef 467)
  store ptr %6, ptr %4, align 8, !tbaa !13
  %7 = load ptr, ptr %4, align 8, !tbaa !13
  %8 = icmp eq ptr %7, null
  br i1 %8, label %9, label %10

9:                                                ; preds = %1
  store ptr null, ptr %2, align 8
  store i32 1, ptr %5, align 4
  br label %15

10:                                               ; preds = %1
  %11 = load ptr, ptr %3, align 8, !tbaa !13
  %12 = load ptr, ptr %4, align 8, !tbaa !13
  %13 = getelementptr inbounds nuw %struct.PROV_XORKEMKEX_CTX, ptr %12, i32 0, i32 2
  store ptr %11, ptr %13, align 8, !tbaa !63
  %14 = load ptr, ptr %4, align 8, !tbaa !13
  store ptr %14, ptr %2, align 8
  store i32 1, ptr %5, align 4
  br label %15

15:                                               ; preds = %10, %9
  call void @llvm.lifetime.end.p0(i64 8, ptr %4) #8
  %16 = load ptr, ptr %2, align 8
  ret ptr %16
}