; Function Attrs: nounwind uwtable
define internal noalias ptr @xor_newkemkexctx(ptr noundef %0) #0 {
  %2 = tail call noalias ptr @CRYPTO_zalloc(i64 noundef 24, ptr noundef nonnull @.str.2, i32 noundef 467) #16
  %3 = icmp eq ptr %2, null
  br i1 %3, label %6, label %4

4:                                                ; preds = %1
  %5 = getelementptr inbounds nuw i8, ptr %2, i64 16
  store ptr %0, ptr %5, align 8, !tbaa !52
  br label %6

6:                                                ; preds = %1, %4
  ret ptr %2
}